target datalayout = "e-m:e-p270:32:32-p271:32:32-p272:64:64-i64:64-i128:128-f80:128-n8:16:32:64-S128"
target triple = "x86_64-pc-linux-gnu"

; Function Attrs: mustprogress nounwind uwtable
define noundef i32 @_ZN4Cube9EdgeIndexEiii(i32 noundef %0, i32 noundef %1, i32 noundef %2) #1 align 2 {
  %4 = alloca i32, align 4
  %5 = alloca i32, align 4
  %6 = alloca i32, align 4
  store i32 %0, ptr %4, align 4
  store i32 %1, ptr %5, align 4
  store i32 %2, ptr %6, align 4
  %7 = load i32, ptr %5, align 4
  %8 = load i32, ptr %6, align 4
  %9 = shl i32 %8, 1
  %10 = or i32 %7, %9
  %11 = load i32, ptr %4, align 4
  %12 = shl i32 %11, 2
  %13 = or i32 %10, %12
  ret i32 %13
}

; Function Attrs: mustprogress nounwind uwtable
define void @_ZN4Cube15FactorEdgeIndexEiRiS0_S0_(i32 noundef %0, ptr noundef nonnull align 4 dereferenceable(4) %1, ptr noundef nonnull align 4 dereferenceable(4) %2, ptr noundef nonnull align 4 dereferenceable(4) %3) #1 align 2 {
  %5 = alloca i32, align 4
  %6 = alloca ptr, align 8
  %7 = alloca ptr, align 8
  %8 = alloca ptr, align 8
  store i32 %0, ptr %5, align 4
  store ptr %1, ptr %6, align 8
  store ptr %2, ptr %7, align 8
  store ptr %3, ptr %8, align 8
  %9 = load i32, ptr %5, align 4
  %10 = ashr i32 %9, 2
  %11 = load ptr, ptr %6, align 8
  store i32 %10, ptr %11, align 4
  %12 = load i32, ptr %5, align 4
  %13 = and i32 %12, 1
  %14 = load ptr, ptr %7, align 8
  store i32 %13, ptr %14, align 4
  %15 = load i32, ptr %5, align 4
  %16 = and i32 %15, 2
  %17 = ashr i32 %16, 1
  %18 = load ptr, ptr %8, align 8
  store i32 %17, ptr %18, align 4
  ret void
}

; Function Attrs: mustprogress nounwind uwtable
define noundef i32 @_ZN4Cube20FaceReflectEdgeIndexEii(i32 noundef %0, i32 noundef %1) #1 align 2 {
  %3 = alloca i32, align 4
  %4 = alloca i32, align 4
  %5 = alloca i32, align 4
  %6 = alloca i32, align 4
  %7 = alloca i32, align 4
  %8 = alloca i32, align 4
  %9 = alloca i32, align 4
  store i32 %0, ptr %4, align 4
  store i32 %1, ptr %5, align 4
  %10 = load i32, ptr %5, align 4
  %11 = sdiv i32 %10, 2
  store i32 %11, ptr %6, align 4
  %12 = load i32, ptr %4, align 4
  call void @_ZN4Cube15FactorEdgeIndexEiRiS0_S0_(i32 noundef %12, ptr noundef nonnull align 4 dereferenceable(4) %7, ptr noundef nonnull align 4 dereferenceable(4) %8, ptr noundef nonnull align 4 dereferenceable(4) %9)
  %13 = load i32, ptr %7, align 4
  %14 = load i32, ptr %6, align 4
  %15 = icmp eq i32 %13, %14
  br i1 %15, label %16, label %18

16:                                               ; preds = %2
  %17 = load i32, ptr %4, align 4
  store i32 %17, ptr %3, align 4
  br label %52

18:                                               ; preds = %2
  %19 = load i32, ptr %6, align 4
  switch i32 %19, label %51 [
    i32 0, label %20
    i32 1, label %27
    i32 2, label %44
  ]

20:                                               ; preds = %18
  %21 = load i32, ptr %7, align 4
  %22 = load i32, ptr %8, align 4
  %23 = add nsw i32 %22, 1
  %24 = srem i32 %23, 2
  %25 = load i32, ptr %9, align 4
  %26 = call noundef i32 @_ZN4Cube9EdgeIndexEiii(i32 noundef %21, i32 noundef %24, i32 noundef %25)
  store i32 %26, ptr %3, align 4
  br label %52

27:                                               ; preds = %18
  %28 = load i32, ptr %7, align 4
  switch i32 %28, label %43 [
    i32 0, label %29
    i32 2, label %36
  ]

29:                                               ; preds = %27
  %30 = load i32, ptr %7, align 4
  %31 = load i32, ptr %8, align 4
  %32 = add nsw i32 %31, 1
  %33 = srem i32 %32, 2
  %34 = load i32, ptr %9, align 4
  %35 = call noundef i32 @_ZN4Cube9EdgeIndexEiii(i32 noundef %30, i32 noundef %33, i32 noundef %34)
  store i32 %35, ptr %3, align 4
  br label %52

36:                                               ; preds = %27
  %37 = load i32, ptr %7, align 4
  %38 = load i32, ptr %8, align 4
  %39 = load i32, ptr %9, align 4
  %40 = add nsw i32 %39, 1
  %41 = srem i32 %40, 2
  %42 = call noundef i32 @_ZN4Cube9EdgeIndexEiii(i32 noundef %37, i32 noundef %38, i32 noundef %41)
  store i32 %42, ptr %3, align 4
  br label %52

43:                                               ; preds = %27
  br label %44

44:                                               ; preds = %43, %18
  %45 = load i32, ptr %7, align 4
  %46 = load i32, ptr %8, align 4
  %47 = load i32, ptr %9, align 4
  %48 = add nsw i32 %47, 1
  %49 = srem i32 %48, 2
  %50 = call noundef i32 @_ZN4Cube9EdgeIndexEiii(i32 noundef %45, i32 noundef %46, i32 noundef %49)
  store i32 %50, ptr %3, align 4
  br label %52

51:                                               ; preds = %18
  store i32 -1, ptr %3, align 4
  br label %52

52:                                               ; preds = %51, %44, %36, %29, %20, %16
  %53 = load i32, ptr %3, align 4
  ret i32 %53
}