; Function Attrs: mustprogress nofree norecurse nosync nounwind willreturn memory(none) uwtable
define noundef i32 @_ZN4Cube20FaceReflectEdgeIndexEii(i32 noundef %0, i32 noundef %1) local_unnamed_addr #0 align 2 {
  %3 = sdiv i32 %1, 2
  %4 = ashr i32 %0, 2
  %5 = lshr i32 %0, 1
  %6 = and i32 %5, 1
  %7 = icmp eq i32 %4, %3
  br i1 %7, label %30, label %8

8:                                                ; preds = %2
  switch i32 %3, label %30 [
    i32 0, label %9
    i32 1, label %14
    i32 2, label %25
  ]

9:                                                ; preds = %8
  %10 = shl nuw nsw i32 %6, 1
  %11 = and i32 %0, -3
  %12 = or disjoint i32 %10, %11
  %13 = xor i32 %12, 1
  br label %30

14:                                               ; preds = %8
  switch i32 %4, label %25 [
    i32 0, label %15
    i32 2, label %20
  ]

15:                                               ; preds = %14
  %16 = shl nuw nsw i32 %6, 1
  %17 = and i32 %0, -3
  %18 = or disjoint i32 %16, %17
  %19 = xor i32 %18, 1
  br label %30

20:                                               ; preds = %14
  %21 = shl nuw nsw i32 %6, 1
  %22 = and i32 %0, -3
  %23 = or disjoint i32 %21, %22
  %24 = xor i32 %23, 2
  br label %30

25:                                               ; preds = %14, %8
  %26 = shl nuw nsw i32 %6, 1
  %27 = and i32 %0, -3
  %28 = or disjoint i32 %26, %27
  %29 = xor i32 %28, 2
  br label %30

30:                                               ; preds = %8, %2, %25, %20, %15, %9
  %.0 = phi i32 [ %29, %25 ], [ %24, %20 ], [ %19, %15 ], [ %13, %9 ], [ %0, %2 ], [ -1, %8 ]
  ret i32 %.0
}